; Function Attrs: mustprogress uwtable
define hidden void @ncnn_copy_make_border_3d(ptr noundef %0, ptr noundef %1, i32 noundef %2, i32 noundef %3, i32 noundef %4, i32 noundef %5, i32 noundef %6, i32 noundef %7, i32 noundef %8, float noundef nofpclass(nan inf) %9, ptr noundef readonly %10) local_unnamed_addr #1 {
  %12 = alloca %"class.ncnn::Option", align 8
  %.not = icmp eq ptr %10, null
  br i1 %.not, label %14, label %13

13:                                               ; preds = %11
  call void @llvm.memcpy.p0.p0.i64(ptr noundef nonnull align 8 dereferenceable(64) %12, ptr noundef nonnull align 8 dereferenceable(64) %10, i64 64, i1 false)
  br label %15

14:                                               ; preds = %11
  call void @_ZN4ncnn6OptionC1Ev(ptr noundef nonnull align 8 dereferenceable(64) %12)
  br label %15

15:                                               ; preds = %14, %13
  call void @_ZN4ncnn19copy_make_border_3dERKNS_3MatERS0_iiiiiiifRKNS_6OptionE(ptr noundef nonnull align 8 dereferenceable(72) %0, ptr noundef nonnull align 8 dereferenceable(72) %1, i32 noundef %2, i32 noundef %3, i32 noundef %4, i32 noundef %5, i32 noundef %6, i32 noundef %7, i32 noundef %8, float noundef nofpclass(nan inf) %9, ptr noundef nonnull align 8 dereferenceable(64) %12)
  ret void
}